target datalayout = "e-m:e-p270:32:32-p271:32:32-p272:64:64-i64:64-i128:128-f80:128-n8:16:32:64-S128"
target triple = "x86_64-pc-linux-gnu"

%struct._root_keys_t = type { ptr, ptr, ptr, ptr }
%struct._GByteArray = type { ptr, i32 }

; Function Attrs: nounwind null_pointer_is_valid sspstrong uwtable
define internal void @byte_array_reverse(ptr noundef %0) #4 {
  %2 = alloca ptr, align 8
  %3 = alloca i32, align 4
  %4 = alloca i8, align 1
  store ptr %0, ptr %2, align 8
  call void @llvm.lifetime.start.p0(i64 4, ptr %3) #10
  store i32 0, ptr %3, align 4
  br label %5

5:                                                ; preds = %51, %1
  %6 = load i32, ptr %3, align 4
  %7 = load ptr, ptr %2, align 8
  %8 = getelementptr inbounds nuw %struct._GByteArray, ptr %7, i32 0, i32 1
  %9 = load i32, ptr %8, align 8
  %10 = udiv i32 %9, 2
  %11 = icmp ult i32 %6, %10
  br i1 %11, label %13, label %12

12:                                               ; preds = %5
  call void @llvm.lifetime.end.p0(i64 4, ptr %3) #10
  br label %54

13:                                               ; preds = %5
  call void @llvm.lifetime.start.p0(i64 1, ptr %4) #10
  %14 = load ptr, ptr %2, align 8
  %15 = getelementptr inbounds nuw %struct._GByteArray, ptr %14, i32 0, i32 0
  %16 = load ptr, ptr %15, align 8
  %17 = load i32, ptr %3, align 4
  %18 = zext i32 %17 to i64
  %19 = getelementptr i8, ptr %16, i64 %18
  %20 = load i8, ptr %19, align 1
  store i8 %20, ptr %4, align 1
  %21 = load ptr, ptr %2, align 8
  %22 = getelementptr inbounds nuw %struct._GByteArray, ptr %21, i32 0, i32 0
  %23 = load ptr, ptr %22, align 8
  %24 = load ptr, ptr %2, align 8
  %25 = getelementptr inbounds nuw %struct._GByteArray, ptr %24, i32 0, i32 1
  %26 = load i32, ptr %25, align 8
  %27 = sub i32 %26, 1
  %28 = load i32, ptr %3, align 4
  %29 = sub i32 %27, %28
  %30 = zext i32 %29 to i64
  %31 = getelementptr i8, ptr %23, i64 %30
  %32 = load i8, ptr %31, align 1
  %33 = load ptr, ptr %2, align 8
  %34 = getelementptr inbounds nuw %struct._GByteArray, ptr %33, i32 0, i32 0
  %35 = load ptr, ptr %34, align 8
  %36 = load i32, ptr %3, align 4
  %37 = zext i32 %36 to i64
  %38 = getelementptr i8, ptr %35, i64 %37
  store i8 %32, ptr %38, align 1
  %39 = load i8, ptr %4, align 1
  %40 = load ptr, ptr %2, align 8
  %41 = getelementptr inbounds nuw %struct._GByteArray, ptr %40, i32 0, i32 0
  %42 = load ptr, ptr %41, align 8
  %43 = load ptr, ptr %2, align 8
  %44 = getelementptr inbounds nuw %struct._GByteArray, ptr %43, i32 0, i32 1
  %45 = load i32, ptr %44, align 8
  %46 = sub i32 %45, 1
  %47 = load i32, ptr %3, align 4
  %48 = sub i32 %46, %47
  %49 = zext i32 %48 to i64
  %50 = getelementptr i8, ptr %42, i64 %49
  store i8 %39, ptr %50, align 1
  call void @llvm.lifetime.end.p0(i64 1, ptr %4) #10
  br label %51

51:                                               ; preds = %13
  %52 = load i32, ptr %3, align 4
  %53 = add i32 %52, 1
  store i32 %53, ptr %3, align 4
  br label %5, !llvm.loop !13

54:                                               ; preds = %12
  ret void
}

; Function Attrs: null_pointer_is_valid sspstrong uwtable
define internal ptr @root_keys_copy_cb(ptr noundef %0, ptr noundef %1, i64 noundef %2) #0 {
  %4 = alloca ptr, align 8
  %5 = alloca ptr, align 8
  %6 = alloca i64, align 8
  %7 = alloca ptr, align 8
  %8 = alloca ptr, align 8
  store ptr %0, ptr %4, align 8
  store ptr %1, ptr %5, align 8
  store i64 %2, ptr %6, align 8
  call void @llvm.lifetime.start.p0(i64 8, ptr %7) #10
  %9 = load ptr, ptr %4, align 8
  store ptr %9, ptr %7, align 8
  call void @llvm.lifetime.start.p0(i64 8, ptr %8) #10
  %10 = load ptr, ptr %5, align 8
  store ptr %10, ptr %8, align 8
  %11 = load ptr, ptr %8, align 8
  %12 = getelementptr inbounds nuw %struct._root_keys_t, ptr %11, i32 0, i32 0
  %13 = load ptr, ptr %12, align 8
  %14 = icmp ne ptr %13, null
  br i1 %14, label %15, label %35

15:                                               ; preds = %3
  %16 = load ptr, ptr %8, align 8
  %17 = getelementptr inbounds nuw %struct._root_keys_t, ptr %16, i32 0, i32 0
  %18 = load ptr, ptr %17, align 8
  %19 = call noalias ptr @g_strdup(ptr noundef %18)
  %20 = load ptr, ptr %7, align 8
  %21 = getelementptr inbounds nuw %struct._root_keys_t, ptr %20, i32 0, i32 0
  store ptr %19, ptr %21, align 8
  %22 = call ptr @g_byte_array_new()
  %23 = load ptr, ptr %7, align 8
  %24 = getelementptr inbounds nuw %struct._root_keys_t, ptr %23, i32 0, i32 2
  store ptr %22, ptr %24, align 8
  %25 = load ptr, ptr %7, align 8
  %26 = getelementptr inbounds nuw %struct._root_keys_t, ptr %25, i32 0, i32 0
  %27 = load ptr, ptr %26, align 8
  %28 = load ptr, ptr %7, align 8
  %29 = getelementptr inbounds nuw %struct._root_keys_t, ptr %28, i32 0, i32 2
  %30 = load ptr, ptr %29, align 8
  %31 = call zeroext i1 @hex_str_to_bytes(ptr noundef %27, ptr noundef %30, i1 noundef zeroext false)
  %32 = load ptr, ptr %7, align 8
  %33 = getelementptr inbounds nuw %struct._root_keys_t, ptr %32, i32 0, i32 2
  %34 = load ptr, ptr %33, align 8
  call void @byte_array_reverse(ptr noundef %34)
  br label %40

35:                                               ; preds = %3
  %36 = load ptr, ptr %7, align 8
  %37 = getelementptr inbounds nuw %struct._root_keys_t, ptr %36, i32 0, i32 0
  store ptr null, ptr %37, align 8
  %38 = load ptr, ptr %7, align 8
  %39 = getelementptr inbounds nuw %struct._root_keys_t, ptr %38, i32 0, i32 2
  store ptr null, ptr %39, align 8
  br label %40

40:                                               ; preds = %35, %15
  %41 = load ptr, ptr %8, align 8
  %42 = getelementptr inbounds nuw %struct._root_keys_t, ptr %41, i32 0, i32 1
  %43 = load ptr, ptr %42, align 8
  %44 = icmp ne ptr %43, null
  br i1 %44, label %45, label %62

45:                                               ; preds = %40
  %46 = load ptr, ptr %8, align 8
  %47 = getelementptr inbounds nuw %struct._root_keys_t, ptr %46, i32 0, i32 1
  %48 = load ptr, ptr %47, align 8
  %49 = call noalias ptr @g_strdup(ptr noundef %48)
  %50 = load ptr, ptr %7, align 8
  %51 = getelementptr inbounds nuw %struct._root_keys_t, ptr %50, i32 0, i32 1
  store ptr %49, ptr %51, align 8
  %52 = call ptr @g_byte_array_new()
  %53 = load ptr, ptr %7, align 8
  %54 = getelementptr inbounds nuw %struct._root_keys_t, ptr %53, i32 0, i32 3
  store ptr %52, ptr %54, align 8
  %55 = load ptr, ptr %7, align 8
  %56 = getelementptr inbounds nuw %struct._root_keys_t, ptr %55, i32 0, i32 1
  %57 = load ptr, ptr %56, align 8
  %58 = load ptr, ptr %7, align 8
  %59 = getelementptr inbounds nuw %struct._root_keys_t, ptr %58, i32 0, i32 3
  %60 = load ptr, ptr %59, align 8
  %61 = call zeroext i1 @hex_str_to_bytes(ptr noundef %57, ptr noundef %60, i1 noundef zeroext false)
  br label %67

62:                                               ; preds = %40
  %63 = load ptr, ptr %7, align 8
  %64 = getelementptr inbounds nuw %struct._root_keys_t, ptr %63, i32 0, i32 1
  store ptr null, ptr %64, align 8
  %65 = load ptr, ptr %7, align 8
  %66 = getelementptr inbounds nuw %struct._root_keys_t, ptr %65, i32 0, i32 3
  store ptr null, ptr %66, align 8
  br label %67

67:                                               ; preds = %62, %45
  %68 = load ptr, ptr %7, align 8
  call void @llvm.lifetime.end.p0(i64 8, ptr %8) #10
  call void @llvm.lifetime.end.p0(i64 8, ptr %7) #10
  ret ptr %68
}