; Function Attrs: null_pointer_is_valid sspstrong uwtable
define internal noundef ptr @root_keys_copy_cb(ptr noundef returned captures(ret: address, provenance) initializes((0, 8), (16, 24)) %0, ptr noundef readonly captures(none) %1, i64 %2) #0 {
  %4 = load ptr, ptr %1, align 8
  %.not = icmp eq ptr %4, null
  br i1 %.not, label %33, label %5

5:                                                ; preds = %3
  %6 = tail call noalias ptr @g_strdup(ptr noundef nonnull %4)
  store ptr %6, ptr %0, align 8
  %7 = tail call ptr @g_byte_array_new()
  %8 = getelementptr inbounds nuw i8, ptr %0, i64 16
  store ptr %7, ptr %8, align 8
  %9 = load ptr, ptr %0, align 8
  %10 = tail call zeroext i1 @hex_str_to_bytes(ptr noundef %9, ptr noundef %7, i1 noundef zeroext false)
  %11 = load ptr, ptr %8, align 8
  %12 = getelementptr inbounds nuw i8, ptr %11, i64 8
  %13 = load i32, ptr %12, align 8
  %.not.i = icmp ult i32 %13, 2
  br i1 %.not.i, label %byte_array_reverse.exit, label %.lr.ph.i

.lr.ph.i:                                         ; preds = %5, %.lr.ph.i
  %indvars.iv.i = phi i64 [ %indvars.iv.next.i, %.lr.ph.i ], [ 0, %5 ]
  %14 = phi i32 [ %29, %.lr.ph.i ], [ %13, %5 ]
  %15 = load ptr, ptr %11, align 8
  %16 = getelementptr i8, ptr %15, i64 %indvars.iv.i
  %17 = load i8, ptr %16, align 1
  %18 = trunc nuw nsw i64 %indvars.iv.i to i32
  %19 = xor i32 %18, -1
  %20 = add i32 %14, %19
  %21 = zext i32 %20 to i64
  %22 = getelementptr i8, ptr %15, i64 %21
  %23 = load i8, ptr %22, align 1
  store i8 %23, ptr %16, align 1
  %24 = load ptr, ptr %11, align 8
  %25 = load i32, ptr %12, align 8
  %26 = add i32 %25, %19
  %27 = zext i32 %26 to i64
  %28 = getelementptr i8, ptr %24, i64 %27
  store i8 %17, ptr %28, align 1
  %indvars.iv.next.i = add nuw nsw i64 %indvars.iv.i, 1
  %29 = load i32, ptr %12, align 8
  %30 = lshr i32 %29, 1
  %31 = zext nneg i32 %30 to i64
  %32 = icmp samesign ult i64 %indvars.iv.next.i, %31
  br i1 %32, label %.lr.ph.i, label %byte_array_reverse.exit, !llvm.loop !13

33:                                               ; preds = %3
  store ptr null, ptr %0, align 8
  %34 = getelementptr inbounds nuw i8, ptr %0, i64 16
  store ptr null, ptr %34, align 8
  br label %byte_array_reverse.exit

byte_array_reverse.exit:                          ; preds = %.lr.ph.i, %5, %33
  %35 = getelementptr inbounds nuw i8, ptr %1, i64 8
  %36 = load ptr, ptr %35, align 8
  %.not21 = icmp eq ptr %36, null
  br i1 %.not21, label %44, label %37

37:                                               ; preds = %byte_array_reverse.exit
  %38 = tail call noalias ptr @g_strdup(ptr noundef nonnull %36)
  %39 = getelementptr inbounds nuw i8, ptr %0, i64 8
  store ptr %38, ptr %39, align 8
  %40 = tail call ptr @g_byte_array_new()
  %41 = getelementptr inbounds nuw i8, ptr %0, i64 24
  store ptr %40, ptr %41, align 8
  %42 = load ptr, ptr %39, align 8
  %43 = tail call zeroext i1 @hex_str_to_bytes(ptr noundef %42, ptr noundef %40, i1 noundef zeroext false)
  br label %47

44:                                               ; preds = %byte_array_reverse.exit
  %45 = getelementptr inbounds nuw i8, ptr %0, i64 8
  store ptr null, ptr %45, align 8
  %46 = getelementptr inbounds nuw i8, ptr %0, i64 24
  store ptr null, ptr %46, align 8
  br label %47

47:                                               ; preds = %44, %37
  ret ptr %0
}